; Function Attrs: mustprogress nofree norecurse nosync nounwind willreturn memory(read, inaccessiblemem: none) uwtable
define ptr @zend_get_recursion_guard(ptr noundef readonly %0) local_unnamed_addr #5 {
  %2 = getelementptr inbounds i8, ptr %0, i64 16
  %3 = load ptr, ptr %2, align 8
  %4 = getelementptr inbounds i8, ptr %3, i64 28
  %5 = load i32, ptr %4, align 4
  %6 = and i32 %5, 2048
  %.not = icmp eq i32 %6, 0
  br i1 %.not, label %13, label %7

7:                                                ; preds = %1
  %8 = getelementptr inbounds i8, ptr %0, i64 40
  %9 = getelementptr inbounds i8, ptr %3, i64 32
  %10 = load i32, ptr %9, align 8
  %11 = sext i32 %10 to i64
  %12 = getelementptr inbounds %struct._zval_struct, ptr %8, i64 %11, i32 2
  br label %13

13:                                               ; preds = %1, %7
  %.0 = phi ptr [ %12, %7 ], [ null, %1 ]
  ret ptr %.0
}